; Function Attrs: mustprogress nounwind uwtable
define internal noundef zeroext i1 @_ZNK12_GLOBAL__N_110MasmParser11lookUpFieldEN4llvm9StringRefERNS1_12AsmFieldInfoE(ptr noundef nonnull align 8 dereferenceable(1144) %0, ptr %1, i64 %2, ptr noundef nonnull align 8 dereferenceable(36) %3) unnamed_addr #0 align 2 {
  %5 = alloca i8, align 1
  %6 = alloca %"class.llvm::StringRef", align 8
  store ptr %1, ptr %6, align 8
  %7 = getelementptr inbounds nuw i8, ptr %6, i64 8
  store i64 %2, ptr %7, align 8
  call void @llvm.lifetime.start.p0(i64 1, ptr nonnull %5)
  store i8 46, ptr %5, align 1, !noalias !52
  %8 = call noundef i64 @_ZNK4llvm9StringRef4findES0_m(ptr noundef nonnull align 8 dereferenceable(16) %6, ptr nonnull %5, i64 1, i64 noundef 0) #24, !noalias !55
  %9 = icmp eq i64 %8, -1
  br i1 %9, label %10, label %11

10:                                               ; preds = %4
  %.sroa.0.0.copyload = load ptr, ptr %6, align 8
  %.sroa.3.0.copyload = load i64, ptr %7, align 8
  br label %_ZNK4llvm9StringRef5splitEc.exit

11:                                               ; preds = %4
  %12 = load i64, ptr %7, align 8, !noalias !55
  %13 = call i64 @llvm.umin.i64(i64 %8, i64 %12)
  %14 = load ptr, ptr %6, align 8, !noalias !55
  %15 = add nuw i64 %8, 1
  %.sroa.speculated5.i.i.i = call i64 @llvm.umin.i64(i64 %12, i64 %15)
  %16 = getelementptr inbounds i8, ptr %14, i64 %.sroa.speculated5.i.i.i
  %17 = sub i64 %12, %.sroa.speculated5.i.i.i
  br label %_ZNK4llvm9StringRef5splitEc.exit

_ZNK4llvm9StringRef5splitEc.exit:                 ; preds = %10, %11
  %.sroa.5.0 = phi ptr [ null, %10 ], [ %16, %11 ]
  %.sroa.8.0 = phi i64 [ 0, %10 ], [ %17, %11 ]
  %.sroa.3.0 = phi i64 [ %.sroa.3.0.copyload, %10 ], [ %13, %11 ]
  %.sroa.0.0 = phi ptr [ %.sroa.0.0.copyload, %10 ], [ %14, %11 ]
  call void @llvm.lifetime.end.p0(i64 1, ptr nonnull %5)
  %18 = load ptr, ptr %0, align 8
  %19 = getelementptr inbounds nuw i8, ptr %18, i64 136
  %20 = load ptr, ptr %19, align 8
  %21 = call noundef zeroext i1 %20(ptr noundef nonnull align 8 dereferenceable(1144) %0, ptr %.sroa.0.0, i64 %.sroa.3.0, ptr %.sroa.5.0, i64 %.sroa.8.0, ptr noundef nonnull align 8 dereferenceable(36) %3) #24
  ret i1 %21
}